target datalayout = "e-m:e-p270:32:32-p271:32:32-p272:64:64-i64:64-i128:128-f80:128-n8:16:32:64-S128"
target triple = "x86_64-pc-linux-gnu"

%"class.marisa::grimoire::vector::BitVector" = type { %"class.marisa::grimoire::vector::Vector", i64, i64, %"class.marisa::grimoire::vector::Vector.0", %"class.marisa::grimoire::vector::Vector.2", %"class.marisa::grimoire::vector::Vector.2" }
%"class.marisa::grimoire::vector::Vector" = type <{ %"class.marisa::scoped_array", ptr, ptr, i64, i64, i8, [7 x i8] }>
%"class.marisa::scoped_array" = type { ptr }
%"class.marisa::grimoire::vector::Vector.0" = type <{ %"class.marisa::scoped_array", ptr, ptr, i64, i64, i8, [7 x i8] }>
%"class.marisa::grimoire::vector::Vector.2" = type <{ %"class.marisa::scoped_array", ptr, ptr, i64, i64, i8, [7 x i8] }>
%"class.marisa::grimoire::vector::RankIndex" = type { i32, i32, i32 }
%"class.marisa::grimoire::vector::PopCount" = type { i64 }

; Function Attrs: mustprogress nounwind uwtable
define linkonce_odr noundef i64 @_ZNK6marisa8grimoire6vector8PopCount4lo64Ev(ptr noundef nonnull align 8 dereferenceable(8) %0) #6 comdat align 2 {
  %2 = alloca ptr, align 8
  store ptr %0, ptr %2, align 8, !tbaa !57
  %3 = load ptr, ptr %2, align 8
  %4 = getelementptr inbounds nuw %"class.marisa::grimoire::vector::PopCount", ptr %3, i32 0, i32 0
  %5 = load i64, ptr %4, align 8, !tbaa !59
  %6 = lshr i64 %5, 56
  %7 = and i64 %6, 255
  ret i64 %7
}

; Function Attrs: mustprogress nounwind uwtable
define linkonce_odr void @_ZN6marisa8grimoire6vector8PopCountC2Em(ptr noundef nonnull align 8 dereferenceable(8) %0, i64 noundef %1) unnamed_addr #6 comdat align 2 {
  %3 = alloca ptr, align 8
  %4 = alloca i64, align 8
  store ptr %0, ptr %3, align 8, !tbaa !57
  store i64 %1, ptr %4, align 8, !tbaa !8
  %5 = load ptr, ptr %3, align 8
  %6 = getelementptr inbounds nuw %"class.marisa::grimoire::vector::PopCount", ptr %5, i32 0, i32 0
  store i64 0, ptr %6, align 8, !tbaa !59
  %7 = load i64, ptr %4, align 8, !tbaa !8
  %8 = and i64 %7, 6148914691236517205
  %9 = load i64, ptr %4, align 8, !tbaa !8
  %10 = and i64 %9, -6148914691236517206
  %11 = lshr i64 %10, 1
  %12 = add i64 %8, %11
  store i64 %12, ptr %4, align 8, !tbaa !8
  %13 = load i64, ptr %4, align 8, !tbaa !8
  %14 = and i64 %13, 3689348814741910323
  %15 = load i64, ptr %4, align 8, !tbaa !8
  %16 = and i64 %15, -3689348814741910324
  %17 = lshr i64 %16, 2
  %18 = add i64 %14, %17
  store i64 %18, ptr %4, align 8, !tbaa !8
  %19 = load i64, ptr %4, align 8, !tbaa !8
  %20 = and i64 %19, 1085102592571150095
  %21 = load i64, ptr %4, align 8, !tbaa !8
  %22 = and i64 %21, -1085102592571150096
  %23 = lshr i64 %22, 4
  %24 = add i64 %20, %23
  store i64 %24, ptr %4, align 8, !tbaa !8
  %25 = load i64, ptr %4, align 8, !tbaa !8
  %26 = mul i64 %25, 72340172838076673
  store i64 %26, ptr %4, align 8, !tbaa !8
  %27 = load i64, ptr %4, align 8, !tbaa !8
  %28 = getelementptr inbounds nuw %"class.marisa::grimoire::vector::PopCount", ptr %5, i32 0, i32 0
  store i64 %27, ptr %28, align 8, !tbaa !59
  ret void
}

; Function Attrs: mustprogress uwtable
define linkonce_odr noundef i64 @_ZN6marisa8grimoire6vector8PopCount5countEm(i64 noundef %0) #4 comdat align 2 {
  %2 = alloca i64, align 8
  %3 = alloca %"class.marisa::grimoire::vector::PopCount", align 8
  store i64 %0, ptr %2, align 8, !tbaa !8
  call void @llvm.lifetime.start.p0(i64 8, ptr %3) #3
  %4 = load i64, ptr %2, align 8, !tbaa !8
  call void @_ZN6marisa8grimoire6vector8PopCountC2Em(ptr noundef nonnull align 8 dereferenceable(8) %3, i64 noundef %4)
  %5 = call noundef i64 @_ZNK6marisa8grimoire6vector8PopCount4lo64Ev(ptr noundef nonnull align 8 dereferenceable(8) %3)
  call void @llvm.lifetime.end.p0(i64 8, ptr %3) #3
  ret i64 %5
}

; Function Attrs: mustprogress nounwind uwtable
define linkonce_odr noundef nonnull align 8 dereferenceable(8) ptr @_ZNK6marisa8grimoire6vector6VectorImEixEm(ptr noundef nonnull align 8 dereferenceable(41) %0, i64 noundef %1) #6 comdat align 2 {
  %3 = alloca ptr, align 8
  %4 = alloca i64, align 8
  store ptr %0, ptr %3, align 8, !tbaa !24
  store i64 %1, ptr %4, align 8, !tbaa !8
  %5 = load ptr, ptr %3, align 8
  %6 = getelementptr inbounds nuw %"class.marisa::grimoire::vector::Vector", ptr %5, i32 0, i32 2
  %7 = load ptr, ptr %6, align 8, !tbaa !26
  %8 = load i64, ptr %4, align 8, !tbaa !8
  %9 = getelementptr inbounds nuw i64, ptr %7, i64 %8
  ret ptr %9
}

; Function Attrs: mustprogress nounwind uwtable
define linkonce_odr noundef i64 @_ZNK6marisa8grimoire6vector9RankIndex4rel7Ev(ptr noundef nonnull align 4 dereferenceable(12) %0) #6 comdat align 2 {
  %2 = alloca ptr, align 8
  store ptr %0, ptr %2, align 8, !tbaa !10
  %3 = load ptr, ptr %2, align 8
  %4 = getelementptr inbounds nuw %"class.marisa::grimoire::vector::RankIndex", ptr %3, i32 0, i32 2
  %5 = load i32, ptr %4, align 4, !tbaa !23
  %6 = lshr i32 %5, 18
  %7 = and i32 %6, 511
  %8 = zext i32 %7 to i64
  ret i64 %8
}

; Function Attrs: mustprogress nounwind uwtable
define linkonce_odr noundef i64 @_ZNK6marisa8grimoire6vector9RankIndex4rel6Ev(ptr noundef nonnull align 4 dereferenceable(12) %0) #6 comdat align 2 {
  %2 = alloca ptr, align 8
  store ptr %0, ptr %2, align 8, !tbaa !10
  %3 = load ptr, ptr %2, align 8
  %4 = getelementptr inbounds nuw %"class.marisa::grimoire::vector::RankIndex", ptr %3, i32 0, i32 2
  %5 = load i32, ptr %4, align 4, !tbaa !23
  %6 = lshr i32 %5, 9
  %7 = and i32 %6, 511
  %8 = zext i32 %7 to i64
  ret i64 %8
}

; Function Attrs: mustprogress nounwind uwtable
define linkonce_odr noundef i64 @_ZNK6marisa8grimoire6vector9RankIndex4rel5Ev(ptr noundef nonnull align 4 dereferenceable(12) %0) #6 comdat align 2 {
  %2 = alloca ptr, align 8
  store ptr %0, ptr %2, align 8, !tbaa !10
  %3 = load ptr, ptr %2, align 8
  %4 = getelementptr inbounds nuw %"class.marisa::grimoire::vector::RankIndex", ptr %3, i32 0, i32 2
  %5 = load i32, ptr %4, align 4, !tbaa !23
  %6 = and i32 %5, 511
  %7 = zext i32 %6 to i64
  ret i64 %7
}

; Function Attrs: mustprogress nounwind uwtable
define linkonce_odr noundef i64 @_ZNK6marisa8grimoire6vector9RankIndex4rel4Ev(ptr noundef nonnull align 4 dereferenceable(12) %0) #6 comdat align 2 {
  %2 = alloca ptr, align 8
  store ptr %0, ptr %2, align 8, !tbaa !10
  %3 = load ptr, ptr %2, align 8
  %4 = getelementptr inbounds nuw %"class.marisa::grimoire::vector::RankIndex", ptr %3, i32 0, i32 1
  %5 = load i32, ptr %4, align 4, !tbaa !22
  %6 = lshr i32 %5, 23
  %7 = and i32 %6, 511
  %8 = zext i32 %7 to i64
  ret i64 %8
}

; Function Attrs: mustprogress nounwind uwtable
define linkonce_odr noundef i64 @_ZNK6marisa8grimoire6vector9RankIndex4rel3Ev(ptr noundef nonnull align 4 dereferenceable(12) %0) #6 comdat align 2 {
  %2 = alloca ptr, align 8
  store ptr %0, ptr %2, align 8, !tbaa !10
  %3 = load ptr, ptr %2, align 8
  %4 = getelementptr inbounds nuw %"class.marisa::grimoire::vector::RankIndex", ptr %3, i32 0, i32 1
  %5 = load i32, ptr %4, align 4, !tbaa !22
  %6 = lshr i32 %5, 15
  %7 = and i32 %6, 255
  %8 = zext i32 %7 to i64
  ret i64 %8
}

; Function Attrs: mustprogress nounwind uwtable
define linkonce_odr noundef i64 @_ZNK6marisa8grimoire6vector9RankIndex4rel2Ev(ptr noundef nonnull align 4 dereferenceable(12) %0) #6 comdat align 2 {
  %2 = alloca ptr, align 8
  store ptr %0, ptr %2, align 8, !tbaa !10
  %3 = load ptr, ptr %2, align 8
  %4 = getelementptr inbounds nuw %"class.marisa::grimoire::vector::RankIndex", ptr %3, i32 0, i32 1
  %5 = load i32, ptr %4, align 4, !tbaa !22
  %6 = lshr i32 %5, 7
  %7 = and i32 %6, 255
  %8 = zext i32 %7 to i64
  ret i64 %8
}

; Function Attrs: mustprogress nounwind uwtable
define linkonce_odr noundef i64 @_ZNK6marisa8grimoire6vector9RankIndex4rel1Ev(ptr noundef nonnull align 4 dereferenceable(12) %0) #6 comdat align 2 {
  %2 = alloca ptr, align 8
  store ptr %0, ptr %2, align 8, !tbaa !10
  %3 = load ptr, ptr %2, align 8
  %4 = getelementptr inbounds nuw %"class.marisa::grimoire::vector::RankIndex", ptr %3, i32 0, i32 1
  %5 = load i32, ptr %4, align 4, !tbaa !22
  %6 = and i32 %5, 127
  %7 = zext i32 %6 to i64
  ret i64 %7
}

; Function Attrs: mustprogress nounwind uwtable
define linkonce_odr noundef i64 @_ZNK6marisa8grimoire6vector9RankIndex3absEv(ptr noundef nonnull align 4 dereferenceable(12) %0) #6 comdat align 2 {
  %2 = alloca ptr, align 8
  store ptr %0, ptr %2, align 8, !tbaa !10
  %3 = load ptr, ptr %2, align 8
  %4 = getelementptr inbounds nuw %"class.marisa::grimoire::vector::RankIndex", ptr %3, i32 0, i32 0
  %5 = load i32, ptr %4, align 4, !tbaa !19
  %6 = zext i32 %5 to i64
  ret i64 %6
}

; Function Attrs: mustprogress nounwind uwtable
define linkonce_odr noundef nonnull align 4 dereferenceable(12) ptr @_ZNK6marisa8grimoire6vector6VectorINS1_9RankIndexEEixEm(ptr noundef nonnull align 8 dereferenceable(41) %0, i64 noundef %1) #6 comdat align 2 {
  %3 = alloca ptr, align 8
  %4 = alloca i64, align 8
  store ptr %0, ptr %3, align 8, !tbaa !12
  store i64 %1, ptr %4, align 8, !tbaa !8
  %5 = load ptr, ptr %3, align 8
  %6 = getelementptr inbounds nuw %"class.marisa::grimoire::vector::Vector.0", ptr %5, i32 0, i32 2
  %7 = load ptr, ptr %6, align 8, !tbaa !14
  %8 = load i64, ptr %4, align 8, !tbaa !8
  %9 = getelementptr inbounds nuw %"class.marisa::grimoire::vector::RankIndex", ptr %7, i64 %8
  ret ptr %9
}

; Function Attrs: mustprogress uwtable
define noundef i64 @_ZNK6marisa8grimoire6vector9BitVector5rank1Em(ptr noundef nonnull align 8 dereferenceable(208) %0, i64 noundef %1) #4 align 2 {
  %3 = alloca ptr, align 8
  %4 = alloca i64, align 8
  %5 = alloca ptr, align 8
  %6 = alloca i64, align 8
  store ptr %0, ptr %3, align 8, !tbaa !3
  store i64 %1, ptr %4, align 8, !tbaa !8
  %7 = load ptr, ptr %3, align 8
  call void @llvm.lifetime.start.p0(i64 8, ptr %5) #3
  %8 = getelementptr inbounds nuw %"class.marisa::grimoire::vector::BitVector", ptr %7, i32 0, i32 3
  %9 = load i64, ptr %4, align 8, !tbaa !8
  %10 = udiv i64 %9, 512
  %11 = call noundef nonnull align 4 dereferenceable(12) ptr @_ZNK6marisa8grimoire6vector6VectorINS1_9RankIndexEEixEm(ptr noundef nonnull align 8 dereferenceable(41) %8, i64 noundef %10)
  store ptr %11, ptr %5, align 8, !tbaa !10
  call void @llvm.lifetime.start.p0(i64 8, ptr %6) #3
  %12 = load ptr, ptr %5, align 8, !tbaa !10
  %13 = call noundef i64 @_ZNK6marisa8grimoire6vector9RankIndex3absEv(ptr noundef nonnull align 4 dereferenceable(12) %12)
  store i64 %13, ptr %6, align 8, !tbaa !8
  %14 = load i64, ptr %4, align 8, !tbaa !8
  %15 = udiv i64 %14, 64
  %16 = urem i64 %15, 8
  switch i64 %16, label %52 [
    i64 1, label %17
    i64 2, label %22
    i64 3, label %27
    i64 4, label %32
    i64 5, label %37
    i64 6, label %42
    i64 7, label %47
  ]

17:                                               ; preds = %2
  %18 = load ptr, ptr %5, align 8, !tbaa !10
  %19 = call noundef i64 @_ZNK6marisa8grimoire6vector9RankIndex4rel1Ev(ptr noundef nonnull align 4 dereferenceable(12) %18)
  %20 = load i64, ptr %6, align 8, !tbaa !8
  %21 = add i64 %20, %19
  store i64 %21, ptr %6, align 8, !tbaa !8
  br label %52

22:                                               ; preds = %2
  %23 = load ptr, ptr %5, align 8, !tbaa !10
  %24 = call noundef i64 @_ZNK6marisa8grimoire6vector9RankIndex4rel2Ev(ptr noundef nonnull align 4 dereferenceable(12) %23)
  %25 = load i64, ptr %6, align 8, !tbaa !8
  %26 = add i64 %25, %24
  store i64 %26, ptr %6, align 8, !tbaa !8
  br label %52

27:                                               ; preds = %2
  %28 = load ptr, ptr %5, align 8, !tbaa !10
  %29 = call noundef i64 @_ZNK6marisa8grimoire6vector9RankIndex4rel3Ev(ptr noundef nonnull align 4 dereferenceable(12) %28)
  %30 = load i64, ptr %6, align 8, !tbaa !8
  %31 = add i64 %30, %29
  store i64 %31, ptr %6, align 8, !tbaa !8
  br label %52

32:                                               ; preds = %2
  %33 = load ptr, ptr %5, align 8, !tbaa !10
  %34 = call noundef i64 @_ZNK6marisa8grimoire6vector9RankIndex4rel4Ev(ptr noundef nonnull align 4 dereferenceable(12) %33)
  %35 = load i64, ptr %6, align 8, !tbaa !8
  %36 = add i64 %35, %34
  store i64 %36, ptr %6, align 8, !tbaa !8
  br label %52

37:                                               ; preds = %2
  %38 = load ptr, ptr %5, align 8, !tbaa !10
  %39 = call noundef i64 @_ZNK6marisa8grimoire6vector9RankIndex4rel5Ev(ptr noundef nonnull align 4 dereferenceable(12) %38)
  %40 = load i64, ptr %6, align 8, !tbaa !8
  %41 = add i64 %40, %39
  store i64 %41, ptr %6, align 8, !tbaa !8
  br label %52

42:                                               ; preds = %2
  %43 = load ptr, ptr %5, align 8, !tbaa !10
  %44 = call noundef i64 @_ZNK6marisa8grimoire6vector9RankIndex4rel6Ev(ptr noundef nonnull align 4 dereferenceable(12) %43)
  %45 = load i64, ptr %6, align 8, !tbaa !8
  %46 = add i64 %45, %44
  store i64 %46, ptr %6, align 8, !tbaa !8
  br label %52

47:                                               ; preds = %2
  %48 = load ptr, ptr %5, align 8, !tbaa !10
  %49 = call noundef i64 @_ZNK6marisa8grimoire6vector9RankIndex4rel7Ev(ptr noundef nonnull align 4 dereferenceable(12) %48)
  %50 = load i64, ptr %6, align 8, !tbaa !8
  %51 = add i64 %50, %49
  store i64 %51, ptr %6, align 8, !tbaa !8
  br label %52

52:                                               ; preds = %2, %47, %42, %37, %32, %27, %22, %17
  %53 = getelementptr inbounds nuw %"class.marisa::grimoire::vector::BitVector", ptr %7, i32 0, i32 0
  %54 = load i64, ptr %4, align 8, !tbaa !8
  %55 = udiv i64 %54, 64
  %56 = call noundef nonnull align 8 dereferenceable(8) ptr @_ZNK6marisa8grimoire6vector6VectorImEixEm(ptr noundef nonnull align 8 dereferenceable(41) %53, i64 noundef %55)
  %57 = load i64, ptr %56, align 8, !tbaa !8
  %58 = load i64, ptr %4, align 8, !tbaa !8
  %59 = urem i64 %58, 64
  %60 = shl i64 1, %59
  %61 = sub i64 %60, 1
  %62 = and i64 %57, %61
  %63 = call noundef i64 @_ZN6marisa8grimoire6vector8PopCount5countEm(i64 noundef %62)
  %64 = load i64, ptr %6, align 8, !tbaa !8
  %65 = add i64 %64, %63
  store i64 %65, ptr %6, align 8, !tbaa !8
  %66 = load i64, ptr %6, align 8, !tbaa !8
  call void @llvm.lifetime.end.p0(i64 8, ptr %6) #3
  call void @llvm.lifetime.end.p0(i64 8, ptr %5) #3
  ret i64 %66
}