; Function Attrs: mustprogress nofree norecurse nosync nounwind willreturn memory(read, inaccessiblemem: none) uwtable
define noundef range(i64 0, 4294968062) i64 @_ZNK6marisa8grimoire6vector9BitVector5rank1Em(ptr noundef nonnull readonly align 8 captures(none) dereferenceable(208) %0, i64 noundef %1) local_unnamed_addr #3 align 2 {
  %3 = lshr i64 %1, 9
  %4 = getelementptr inbounds nuw i8, ptr %0, i64 80
  %5 = load ptr, ptr %4, align 8, !tbaa !3
  %6 = getelementptr inbounds nuw %"class.marisa::grimoire::vector::RankIndex", ptr %5, i64 %3
  %7 = load i32, ptr %6, align 4, !tbaa !13
  %8 = zext i32 %7 to i64
  %9 = lshr i64 %1, 6
  %10 = and i64 %9, 7
  switch i64 %10, label %default.unreachable21 [
    i64 1, label %11
    i64 2, label %17
    i64 3, label %24
    i64 4, label %31
    i64 5, label %37
    i64 6, label %43
    i64 7, label %50
    i64 0, label %57
  ]

11:                                               ; preds = %2
  %12 = getelementptr inbounds nuw i8, ptr %6, i64 4
  %13 = load i32, ptr %12, align 4, !tbaa !16
  %14 = and i32 %13, 127
  %15 = zext nneg i32 %14 to i64
  %16 = add nuw nsw i64 %15, %8
  br label %57

17:                                               ; preds = %2
  %18 = getelementptr inbounds nuw i8, ptr %6, i64 4
  %19 = load i32, ptr %18, align 4, !tbaa !16
  %20 = lshr i32 %19, 7
  %21 = and i32 %20, 255
  %22 = zext nneg i32 %21 to i64
  %23 = add nuw nsw i64 %22, %8
  br label %57

24:                                               ; preds = %2
  %25 = getelementptr inbounds nuw i8, ptr %6, i64 4
  %26 = load i32, ptr %25, align 4, !tbaa !16
  %27 = lshr i32 %26, 15
  %28 = and i32 %27, 255
  %29 = zext nneg i32 %28 to i64
  %30 = add nuw nsw i64 %29, %8
  br label %57

31:                                               ; preds = %2
  %32 = getelementptr inbounds nuw i8, ptr %6, i64 4
  %33 = load i32, ptr %32, align 4, !tbaa !16
  %34 = lshr i32 %33, 23
  %35 = zext nneg i32 %34 to i64
  %36 = add nuw nsw i64 %35, %8
  br label %57

37:                                               ; preds = %2
  %38 = getelementptr inbounds nuw i8, ptr %6, i64 8
  %39 = load i32, ptr %38, align 4, !tbaa !17
  %40 = and i32 %39, 511
  %41 = zext nneg i32 %40 to i64
  %42 = add nuw nsw i64 %41, %8
  br label %57

43:                                               ; preds = %2
  %44 = getelementptr inbounds nuw i8, ptr %6, i64 8
  %45 = load i32, ptr %44, align 4, !tbaa !17
  %46 = lshr i32 %45, 9
  %47 = and i32 %46, 511
  %48 = zext nneg i32 %47 to i64
  %49 = add nuw nsw i64 %48, %8
  br label %57

50:                                               ; preds = %2
  %51 = getelementptr inbounds nuw i8, ptr %6, i64 8
  %52 = load i32, ptr %51, align 4, !tbaa !17
  %53 = lshr i32 %52, 18
  %54 = and i32 %53, 511
  %55 = zext nneg i32 %54 to i64
  %56 = add nuw nsw i64 %55, %8
  br label %57

default.unreachable21:                            ; preds = %2
  unreachable

57:                                               ; preds = %2, %50, %43, %37, %31, %24, %17, %11
  %.0 = phi i64 [ %8, %2 ], [ %56, %50 ], [ %49, %43 ], [ %42, %37 ], [ %36, %31 ], [ %30, %24 ], [ %23, %17 ], [ %16, %11 ]
  %58 = getelementptr inbounds nuw i8, ptr %0, i64 16
  %59 = load ptr, ptr %58, align 8, !tbaa !18
  %60 = getelementptr inbounds nuw i64, ptr %59, i64 %9
  %61 = load i64, ptr %60, align 8, !tbaa !21
  %62 = and i64 %1, 63
  %notmask = shl nsw i64 -1, %62
  %63 = xor i64 %notmask, -1
  %64 = and i64 %61, %63
  %65 = and i64 %64, 6148914691236517205
  %66 = lshr i64 %64, 1
  %67 = and i64 %66, 1537228672809129301
  %68 = add nuw nsw i64 %67, %65
  %69 = and i64 %68, 3689348814741910323
  %70 = lshr i64 %68, 2
  %71 = and i64 %70, 1383505805528216371
  %72 = add nuw nsw i64 %71, %69
  %73 = and i64 %72, 506381209866536711
  %74 = lshr i64 %72, 4
  %75 = and i64 %74, 506381209866536711
  %76 = add nuw nsw i64 %75, %73
  %77 = mul i64 %76, 72340172838076673
  %78 = lshr i64 %77, 56
  %79 = add nuw nsw i64 %78, %.0
  ret i64 %79
}